target datalayout = "e-m:e-p270:32:32-p271:32:32-p272:64:64-i64:64-i128:128-f80:128-n8:16:32:64-S128"
target triple = "x86_64-pc-linux-gnu"

%struct.ossl_cmp_itav_st = type { ptr, %union.anon }
%union.anon = type { ptr }

@OSSL_CMP_ITAV_it.local_it = internal constant { i8, [7 x i8], i64, ptr, i64, ptr, i64, ptr } { i8 1, [7 x i8] zeroinitializer, i64 16, ptr @OSSL_CMP_ITAV_seq_tt, i64 2, ptr null, i64 16, ptr @.str.6 }, align 8

; Function Attrs: nounwind uwtable
define ptr @OSSL_CMP_ITAV_it() #0 {
  ret ptr @OSSL_CMP_ITAV_it.local_it
}

; Function Attrs: nounwind uwtable
define ptr @OSSL_CMP_ITAV_new() #0 {
  %1 = call ptr @OSSL_CMP_ITAV_it()
  %2 = call ptr @ASN1_item_new(ptr noundef %1)
  ret ptr %2
}

; Function Attrs: nounwind uwtable
define ptr @OSSL_CMP_ITAV_new0_certProfile(ptr noundef %0) #0 {
  %2 = alloca ptr, align 8
  %3 = alloca ptr, align 8
  %4 = alloca ptr, align 8
  %5 = alloca i32, align 4
  store ptr %0, ptr %3, align 8, !tbaa !63
  call void @llvm.lifetime.start.p0(i64 8, ptr %4) #4
  %6 = call ptr @OSSL_CMP_ITAV_new()
  store ptr %6, ptr %4, align 8, !tbaa !28
  %7 = icmp eq ptr %6, null
  br i1 %7, label %8, label %9

8:                                                ; preds = %1
  store ptr null, ptr %2, align 8
  store i32 1, ptr %5, align 4
  br label %17

9:                                                ; preds = %1
  %10 = call ptr @OBJ_nid2obj(i32 noundef 1255)
  %11 = load ptr, ptr %4, align 8, !tbaa !28
  %12 = getelementptr inbounds nuw %struct.ossl_cmp_itav_st, ptr %11, i32 0, i32 0
  store ptr %10, ptr %12, align 8, !tbaa !54
  %13 = load ptr, ptr %3, align 8, !tbaa !63
  %14 = load ptr, ptr %4, align 8, !tbaa !28
  %15 = getelementptr inbounds nuw %struct.ossl_cmp_itav_st, ptr %14, i32 0, i32 1
  store ptr %13, ptr %15, align 8, !tbaa !56
  %16 = load ptr, ptr %4, align 8, !tbaa !28
  store ptr %16, ptr %2, align 8
  store i32 1, ptr %5, align 4
  br label %17

17:                                               ; preds = %9, %8
  call void @llvm.lifetime.end.p0(i64 8, ptr %4) #4
  %18 = load ptr, ptr %2, align 8
  ret ptr %18
}